; Function Attrs: nounwind uwtable
define i32 @opt_cpucount(ptr noundef readnone captures(none) %0, ptr noundef readnone captures(none) %1, ptr noundef %2) local_unnamed_addr #2 {
  %4 = alloca i32, align 4
  %5 = alloca ptr, align 8
  call void @llvm.lifetime.start.p0(i64 4, ptr nonnull %4) #17
  call void @llvm.lifetime.start.p0(i64 8, ptr nonnull %5) #17
  store ptr @opt_cpucount.class, ptr %5, align 8, !tbaa !106
  %6 = call i32 @av_opt_eval_int(ptr noundef nonnull %5, ptr noundef nonnull @opt_cpucount.opts, ptr noundef %2, ptr noundef nonnull %4) #17
  %.not = icmp eq i32 %6, 0
  br i1 %.not, label %7, label %9

7:                                                ; preds = %3
  %8 = load i32, ptr %4, align 4, !tbaa !4
  call void @av_cpu_force_count(i32 noundef %8) #17
  br label %9

9:                                                ; preds = %7, %3
  call void @llvm.lifetime.end.p0(i64 8, ptr nonnull %5) #17
  call void @llvm.lifetime.end.p0(i64 4, ptr nonnull %4) #17
  ret i32 %6
}